target datalayout = "e-m:e-p270:32:32-p271:32:32-p272:64:64-i64:64-i128:128-f80:128-n8:16:32:64-S128"
target triple = "x86_64-pc-linux-gnu"

%struct.dt_control_crawler_gui_t = type { ptr, ptr, ptr, ptr, ptr }

; Function Attrs: nounwind uwtable
define internal void @dt_control_crawler_response_callback(ptr noundef %0, i32 noundef %1, ptr noundef %2) #0 {
  %4 = alloca ptr, align 8
  %5 = alloca i32, align 4
  %6 = alloca ptr, align 8
  %7 = alloca ptr, align 8
  store ptr %0, ptr %4, align 8, !tbaa !96
  store i32 %1, ptr %5, align 4, !tbaa !11
  store ptr %2, ptr %6, align 8, !tbaa !75
  call void @llvm.lifetime.start.p0(i64 8, ptr %7) #11
  %8 = load ptr, ptr %6, align 8, !tbaa !75
  store ptr %8, ptr %7, align 8, !tbaa !76
  %9 = load ptr, ptr %7, align 8, !tbaa !76
  %10 = getelementptr inbounds nuw %struct.dt_control_crawler_gui_t, ptr %9, i32 0, i32 1
  %11 = load ptr, ptr %10, align 8, !tbaa !92
  %12 = call ptr @g_type_check_instance_cast(ptr noundef %11, i64 noundef 80)
  call void @g_object_unref(ptr noundef %12)
  %13 = load ptr, ptr %4, align 8, !tbaa !96
  call void @gtk_widget_destroy(ptr noundef %13)
  %14 = load ptr, ptr %7, align 8, !tbaa !76
  call void @free(ptr noundef %14) #11
  call void @llvm.lifetime.end.p0(i64 8, ptr %7) #11
  ret void
}