; Function Attrs: nounwind uwtable
define internal void @dt_control_crawler_response_callback(ptr noundef %0, i32 %1, ptr noundef captures(none) %2) #0 {
  %4 = getelementptr inbounds nuw i8, ptr %2, i64 8
  %5 = load ptr, ptr %4, align 8, !tbaa !73
  %6 = tail call ptr @g_type_check_instance_cast(ptr noundef %5, i64 noundef 80) #13
  tail call void @g_object_unref(ptr noundef %6) #13
  tail call void @gtk_widget_destroy(ptr noundef %0) #13
  tail call void @free(ptr noundef %2) #13
  ret void
}